; Function Attrs: mustprogress nofree nosync nounwind willreturn memory(readwrite, inaccessiblemem: none) uwtable
define internal range(i32 -22, 1) i32 @sbg_read_seek2(ptr noundef readonly captures(none) %0, i32 noundef %1, i64 %2, i64 noundef %3, i64 %4, i32 noundef %5) #2 {
  %7 = icmp ne i32 %5, 0
  %8 = icmp sgt i32 %1, 0
  %or.cond = or i1 %8, %7
  br i1 %or.cond, label %19, label %9

9:                                                ; preds = %6
  %10 = icmp slt i32 %1, 0
  %11 = getelementptr inbounds nuw i8, ptr %0, i64 48
  %12 = load ptr, ptr %11, align 8, !tbaa !147
  %13 = load ptr, ptr %12, align 8, !tbaa !148
  br i1 %10, label %14, label %._crit_edge

14:                                               ; preds = %9
  %15 = getelementptr inbounds nuw i8, ptr %13, i64 32
  %16 = load i64, ptr %15, align 8
  %17 = tail call i64 @av_rescale_q(i64 noundef %3, i64 4294967296000001, i64 %16) #17
  br label %._crit_edge

._crit_edge:                                      ; preds = %9, %14
  %.08 = phi i64 [ %17, %14 ], [ %3, %9 ]
  %18 = getelementptr inbounds nuw i8, ptr %13, i64 840
  store i64 %.08, ptr %18, align 8, !tbaa !132
  br label %19

19:                                               ; preds = %6, %._crit_edge
  %.0 = phi i32 [ 0, %._crit_edge ], [ -22, %6 ]
  ret i32 %.0
}